target datalayout = "e-m:e-p270:32:32-p271:32:32-p272:64:64-i64:64-i128:128-f80:128-n8:16:32:64-S128"
target triple = "x86_64-pc-linux-gnu"

%"class.google::protobuf::internal::LogMessage" = type { i32, ptr, i32, %"class.std::__cxx11::basic_string" }
%"class.std::__cxx11::basic_string" = type { %"struct.std::__cxx11::basic_string<char>::_Alloc_hider", i64, %union.anon }
%"struct.std::__cxx11::basic_string<char>::_Alloc_hider" = type { ptr }
%union.anon = type { i64, [8 x i8] }
%"class.google::protobuf::internal::LogFinisher" = type { i8 }
%"class.google::protobuf::internal::SerialArena" = type { ptr, ptr, ptr, ptr, ptr, ptr, ptr, ptr, ptr }
%"struct.google::protobuf::internal::SerialArena::CleanupChunk" = type { i64, ptr, [1 x %"struct.google::protobuf::internal::SerialArena::CleanupNode"] }
%"struct.google::protobuf::internal::SerialArena::CleanupNode" = type { ptr, ptr }

@_ZL23kMaxCleanupListElements = internal constant i64 64, align 8
@.str.5 = private unnamed_addr constant [62 x i8] c"src/../third_party/protobuf-lite/google/protobuf/arena_impl.h\00", align 1
@.str.8 = private unnamed_addr constant [49 x i8] c"CHECK failed: (internal::AlignUpTo8(n)) == (n): \00", align 1
@.str.9 = private unnamed_addr constant [35 x i8] c"CHECK failed: (limit_) >= (ptr_): \00", align 1

; Function Attrs: mustprogress nounwind uwtable
define linkonce_odr noundef zeroext i1 @_ZN6google8protobuf8internal11SerialArena8HasSpaceEm(ptr noundef nonnull align 8 dereferenceable(72) %0, i64 noundef %1) #5 comdat align 2 {
  %3 = alloca ptr, align 8
  %4 = alloca i64, align 8
  store ptr %0, ptr %3, align 8, !tbaa !62
  store i64 %1, ptr %4, align 8, !tbaa !7
  %5 = load ptr, ptr %3, align 8
  %6 = load i64, ptr %4, align 8, !tbaa !7
  %7 = getelementptr inbounds nuw %"class.google::protobuf::internal::SerialArena", ptr %5, i32 0, i32 6
  %8 = load ptr, ptr %7, align 8, !tbaa !77
  %9 = getelementptr inbounds nuw %"class.google::protobuf::internal::SerialArena", ptr %5, i32 0, i32 5
  %10 = load ptr, ptr %9, align 8, !tbaa !76
  %11 = ptrtoint ptr %8 to i64
  %12 = ptrtoint ptr %10 to i64
  %13 = sub i64 %11, %12
  %14 = icmp ule i64 %6, %13
  ret i1 %14
}

; Function Attrs: mustprogress uwtable
define linkonce_odr void @_ZN6google8protobuf8internal11SerialArena10AddCleanupEPvPFvS3_E(ptr noundef nonnull align 8 dereferenceable(72) %0, ptr noundef %1, ptr noundef %2) #7 comdat align 2 {
  %4 = alloca ptr, align 8
  %5 = alloca ptr, align 8
  %6 = alloca ptr, align 8
  store ptr %0, ptr %4, align 8, !tbaa !62
  store ptr %1, ptr %5, align 8, !tbaa !3
  store ptr %2, ptr %6, align 8, !tbaa !3
  %7 = load ptr, ptr %4, align 8
  %8 = getelementptr inbounds nuw %"class.google::protobuf::internal::SerialArena", ptr %7, i32 0, i32 7
  %9 = load ptr, ptr %8, align 8, !tbaa !79
  %10 = getelementptr inbounds nuw %"class.google::protobuf::internal::SerialArena", ptr %7, i32 0, i32 8
  %11 = load ptr, ptr %10, align 8, !tbaa !80
  %12 = icmp eq ptr %9, %11
  %13 = zext i1 %12 to i64
  %14 = call i64 @llvm.expect.i64(i64 %13, i64 0)
  %15 = icmp ne i64 %14, 0
  br i1 %15, label %16, label %19

16:                                               ; preds = %3
  %17 = load ptr, ptr %5, align 8, !tbaa !3
  %18 = load ptr, ptr %6, align 8, !tbaa !3
  call void @_ZN6google8protobuf8internal11SerialArena18AddCleanupFallbackEPvPFvS3_E(ptr noundef nonnull align 8 dereferenceable(72) %7, ptr noundef %17, ptr noundef %18)
  br label %31

19:                                               ; preds = %3
  %20 = load ptr, ptr %5, align 8, !tbaa !3
  %21 = getelementptr inbounds nuw %"class.google::protobuf::internal::SerialArena", ptr %7, i32 0, i32 7
  %22 = load ptr, ptr %21, align 8, !tbaa !79
  %23 = getelementptr inbounds nuw %"struct.google::protobuf::internal::SerialArena::CleanupNode", ptr %22, i32 0, i32 0
  store ptr %20, ptr %23, align 8, !tbaa !111
  %24 = load ptr, ptr %6, align 8, !tbaa !3
  %25 = getelementptr inbounds nuw %"class.google::protobuf::internal::SerialArena", ptr %7, i32 0, i32 7
  %26 = load ptr, ptr %25, align 8, !tbaa !79
  %27 = getelementptr inbounds nuw %"struct.google::protobuf::internal::SerialArena::CleanupNode", ptr %26, i32 0, i32 1
  store ptr %24, ptr %27, align 8, !tbaa !113
  %28 = getelementptr inbounds nuw %"class.google::protobuf::internal::SerialArena", ptr %7, i32 0, i32 7
  %29 = load ptr, ptr %28, align 8, !tbaa !79
  %30 = getelementptr inbounds nuw %"struct.google::protobuf::internal::SerialArena::CleanupNode", ptr %29, i32 1
  store ptr %30, ptr %28, align 8, !tbaa !79
  br label %31

31:                                               ; preds = %19, %16
  ret void
}

; Function Attrs: mustprogress uwtable
define linkonce_odr noundef ptr @_ZN6google8protobuf8internal11SerialArena15AllocateAlignedEm(ptr noundef nonnull align 8 dereferenceable(72) %0, i64 noundef %1) #7 comdat align 2 personality ptr @__gxx_personality_v0 {
  %3 = alloca ptr, align 8
  %4 = alloca ptr, align 8
  %5 = alloca i64, align 8
  %6 = alloca %"class.google::protobuf::internal::LogMessage", align 8
  %7 = alloca i1, align 1
  %8 = alloca i1, align 1
  %9 = alloca ptr, align 8
  %10 = alloca i32, align 4
  %11 = alloca %"class.google::protobuf::internal::LogFinisher", align 1
  %12 = alloca %"class.google::protobuf::internal::LogMessage", align 8
  %13 = alloca i1, align 1
  %14 = alloca i1, align 1
  %15 = alloca %"class.google::protobuf::internal::LogFinisher", align 1
  %16 = alloca ptr, align 8
  store ptr %0, ptr %4, align 8, !tbaa !62
  store i64 %1, ptr %5, align 8, !tbaa !7
  %17 = load ptr, ptr %4, align 8
  br label %18

18:                                               ; preds = %35, %2
  br i1 false, label %19, label %51

19:                                               ; preds = %18
  %20 = load i64, ptr %5, align 8, !tbaa !7
  %21 = call noundef i64 @_ZN6google8protobuf8internal10AlignUpTo8Em(i64 noundef %20)
  %22 = load i64, ptr %5, align 8, !tbaa !7
  %23 = icmp eq i64 %21, %22
  store i1 false, ptr %7, align 1
  store i1 false, ptr %8, align 1
  call void @llvm.lifetime.start.p0(i64 1, ptr %11) #3
  br i1 %23, label %24, label %25

24:                                               ; preds = %19
  br label %29

25:                                               ; preds = %19
  call void @llvm.lifetime.start.p0(i64 56, ptr %6) #3
  store i1 true, ptr %7, align 1
  call void @_ZN6google8protobuf8internal10LogMessageC1ENS0_8LogLevelEPKci(ptr noundef nonnull align 8 dereferenceable(56) %6, i32 noundef 3, ptr noundef @.str.5, i32 noundef 159)
  store i1 true, ptr %8, align 1
  %26 = invoke noundef nonnull align 8 dereferenceable(56) ptr @_ZN6google8protobuf8internal10LogMessagelsEPKc(ptr noundef nonnull align 8 dereferenceable(56) %6, ptr noundef @.str.8)
          to label %27 unwind label %36

27:                                               ; preds = %25
  invoke void @_ZN6google8protobuf8internal11LogFinisheraSERNS1_10LogMessageE(ptr noundef nonnull align 1 dereferenceable(1) %11, ptr noundef nonnull align 8 dereferenceable(56) %26)
          to label %28 unwind label %40

28:                                               ; preds = %27
  br label %29

29:                                               ; preds = %28, %24
  call void @llvm.lifetime.end.p0(i64 1, ptr %11) #3
  %30 = load i1, ptr %8, align 1
  br i1 %30, label %31, label %32

31:                                               ; preds = %29
  call void @_ZN6google8protobuf8internal10LogMessageD1Ev(ptr noundef nonnull align 8 dereferenceable(56) %6) #3
  br label %32

32:                                               ; preds = %31, %29
  %33 = load i1, ptr %7, align 1
  br i1 %33, label %34, label %35

34:                                               ; preds = %32
  call void @llvm.lifetime.end.p0(i64 56, ptr %6) #3
  br label %35

35:                                               ; preds = %34, %32
  br label %18, !llvm.loop !109

36:                                               ; preds = %25
  %37 = landingpad { ptr, i32 }
          cleanup
  %38 = extractvalue { ptr, i32 } %37, 0
  store ptr %38, ptr %9, align 8
  %39 = extractvalue { ptr, i32 } %37, 1
  store i32 %39, ptr %10, align 4
  br label %44

40:                                               ; preds = %27
  %41 = landingpad { ptr, i32 }
          cleanup
  %42 = extractvalue { ptr, i32 } %41, 0
  store ptr %42, ptr %9, align 8
  %43 = extractvalue { ptr, i32 } %41, 1
  store i32 %43, ptr %10, align 4
  call void @llvm.lifetime.end.p0(i64 1, ptr %11) #3
  br label %44

44:                                               ; preds = %40, %36
  %45 = load i1, ptr %8, align 1
  br i1 %45, label %46, label %47

46:                                               ; preds = %44
  call void @_ZN6google8protobuf8internal10LogMessageD1Ev(ptr noundef nonnull align 8 dereferenceable(56) %6) #3
  br label %47

47:                                               ; preds = %46, %44
  %48 = load i1, ptr %7, align 1
  br i1 %48, label %49, label %50

49:                                               ; preds = %47
  call void @llvm.lifetime.end.p0(i64 56, ptr %6) #3
  br label %50

50:                                               ; preds = %49, %47
  br label %106

51:                                               ; preds = %18
  br label %52

52:                                               ; preds = %70, %51
  br i1 false, label %53, label %86

53:                                               ; preds = %52
  %54 = getelementptr inbounds nuw %"class.google::protobuf::internal::SerialArena", ptr %17, i32 0, i32 6
  %55 = load ptr, ptr %54, align 8, !tbaa !77
  %56 = getelementptr inbounds nuw %"class.google::protobuf::internal::SerialArena", ptr %17, i32 0, i32 5
  %57 = load ptr, ptr %56, align 8, !tbaa !76
  %58 = icmp uge ptr %55, %57
  store i1 false, ptr %13, align 1
  store i1 false, ptr %14, align 1
  call void @llvm.lifetime.start.p0(i64 1, ptr %15) #3
  br i1 %58, label %59, label %60

59:                                               ; preds = %53
  br label %64

60:                                               ; preds = %53
  call void @llvm.lifetime.start.p0(i64 56, ptr %12) #3
  store i1 true, ptr %13, align 1
  call void @_ZN6google8protobuf8internal10LogMessageC1ENS0_8LogLevelEPKci(ptr noundef nonnull align 8 dereferenceable(56) %12, i32 noundef 3, ptr noundef @.str.5, i32 noundef 160)
  store i1 true, ptr %14, align 1
  %61 = invoke noundef nonnull align 8 dereferenceable(56) ptr @_ZN6google8protobuf8internal10LogMessagelsEPKc(ptr noundef nonnull align 8 dereferenceable(56) %12, ptr noundef @.str.9)
          to label %62 unwind label %71

62:                                               ; preds = %60
  invoke void @_ZN6google8protobuf8internal11LogFinisheraSERNS1_10LogMessageE(ptr noundef nonnull align 1 dereferenceable(1) %15, ptr noundef nonnull align 8 dereferenceable(56) %61)
          to label %63 unwind label %75

63:                                               ; preds = %62
  br label %64

64:                                               ; preds = %63, %59
  call void @llvm.lifetime.end.p0(i64 1, ptr %15) #3
  %65 = load i1, ptr %14, align 1
  br i1 %65, label %66, label %67

66:                                               ; preds = %64
  call void @_ZN6google8protobuf8internal10LogMessageD1Ev(ptr noundef nonnull align 8 dereferenceable(56) %12) #3
  br label %67

67:                                               ; preds = %66, %64
  %68 = load i1, ptr %13, align 1
  br i1 %68, label %69, label %70

69:                                               ; preds = %67
  call void @llvm.lifetime.end.p0(i64 56, ptr %12) #3
  br label %70

70:                                               ; preds = %69, %67
  br label %52, !llvm.loop !110

71:                                               ; preds = %60
  %72 = landingpad { ptr, i32 }
          cleanup
  %73 = extractvalue { ptr, i32 } %72, 0
  store ptr %73, ptr %9, align 8
  %74 = extractvalue { ptr, i32 } %72, 1
  store i32 %74, ptr %10, align 4
  br label %79

75:                                               ; preds = %62
  %76 = landingpad { ptr, i32 }
          cleanup
  %77 = extractvalue { ptr, i32 } %76, 0
  store ptr %77, ptr %9, align 8
  %78 = extractvalue { ptr, i32 } %76, 1
  store i32 %78, ptr %10, align 4
  call void @llvm.lifetime.end.p0(i64 1, ptr %15) #3
  br label %79

79:                                               ; preds = %75, %71
  %80 = load i1, ptr %14, align 1
  br i1 %80, label %81, label %82

81:                                               ; preds = %79
  call void @_ZN6google8protobuf8internal10LogMessageD1Ev(ptr noundef nonnull align 8 dereferenceable(56) %12) #3
  br label %82

82:                                               ; preds = %81, %79
  %83 = load i1, ptr %13, align 1
  br i1 %83, label %84, label %85

84:                                               ; preds = %82
  call void @llvm.lifetime.end.p0(i64 56, ptr %12) #3
  br label %85

85:                                               ; preds = %84, %82
  br label %106

86:                                               ; preds = %52
  %87 = load i64, ptr %5, align 8, !tbaa !7
  %88 = call noundef zeroext i1 @_ZN6google8protobuf8internal11SerialArena8HasSpaceEm(ptr noundef nonnull align 8 dereferenceable(72) %17, i64 noundef %87)
  %89 = xor i1 %88, true
  %90 = zext i1 %89 to i64
  %91 = call i64 @llvm.expect.i64(i64 %90, i64 0)
  %92 = icmp ne i64 %91, 0
  br i1 %92, label %93, label %96

93:                                               ; preds = %86
  %94 = load i64, ptr %5, align 8, !tbaa !7
  %95 = call noundef ptr @_ZN6google8protobuf8internal11SerialArena23AllocateAlignedFallbackEm(ptr noundef nonnull align 8 dereferenceable(72) %17, i64 noundef %94)
  store ptr %95, ptr %3, align 8
  br label %104

96:                                               ; preds = %86
  call void @llvm.lifetime.start.p0(i64 8, ptr %16) #3
  %97 = getelementptr inbounds nuw %"class.google::protobuf::internal::SerialArena", ptr %17, i32 0, i32 5
  %98 = load ptr, ptr %97, align 8, !tbaa !76
  store ptr %98, ptr %16, align 8, !tbaa !3
  %99 = load i64, ptr %5, align 8, !tbaa !7
  %100 = getelementptr inbounds nuw %"class.google::protobuf::internal::SerialArena", ptr %17, i32 0, i32 5
  %101 = load ptr, ptr %100, align 8, !tbaa !76
  %102 = getelementptr inbounds nuw i8, ptr %101, i64 %99
  store ptr %102, ptr %100, align 8, !tbaa !76
  %103 = load ptr, ptr %16, align 8, !tbaa !3
  store ptr %103, ptr %3, align 8
  call void @llvm.lifetime.end.p0(i64 8, ptr %16) #3
  br label %104

104:                                              ; preds = %96, %93
  %105 = load ptr, ptr %3, align 8
  ret ptr %105

106:                                              ; preds = %85, %50
  %107 = load ptr, ptr %9, align 8
  %108 = load i32, ptr %10, align 4
  %109 = insertvalue { ptr, i32 } poison, ptr %107, 0
  %110 = insertvalue { ptr, i32 } %109, i32 %108, 1
  resume { ptr, i32 } %110
}

; Function Attrs: inlinehint mustprogress nounwind uwtable
define linkonce_odr noundef i64 @_ZN6google8protobuf8internal10AlignUpTo8Em(i64 noundef %0) #9 comdat {
  %2 = alloca i64, align 8
  store i64 %0, ptr %2, align 8, !tbaa !7
  %3 = load i64, ptr %2, align 8, !tbaa !7
  %4 = add i64 %3, 7
  %5 = and i64 %4, -8
  ret i64 %5
}

; Function Attrs: mustprogress nounwind uwtable
define linkonce_odr noundef i64 @_ZN6google8protobuf8internal11SerialArena12CleanupChunk6SizeOfEm(i64 noundef %0) #5 comdat align 2 {
  %2 = alloca i64, align 8
  store i64 %0, ptr %2, align 8, !tbaa !7
  %3 = load i64, ptr %2, align 8, !tbaa !7
  %4 = sub i64 %3, 1
  %5 = mul i64 16, %4
  %6 = add i64 32, %5
  ret i64 %6
}

; Function Attrs: inlinehint mustprogress nounwind uwtable
define linkonce_odr noundef nonnull align 8 dereferenceable(8) ptr @_ZSt3minImERKT_S2_S2_(ptr noundef nonnull align 8 dereferenceable(8) %0, ptr noundef nonnull align 8 dereferenceable(8) %1) #9 comdat {
  %3 = alloca ptr, align 8
  %4 = alloca ptr, align 8
  %5 = alloca ptr, align 8
  store ptr %0, ptr %4, align 8, !tbaa !49
  store ptr %1, ptr %5, align 8, !tbaa !49
  %6 = load ptr, ptr %5, align 8, !tbaa !49
  %7 = load i64, ptr %6, align 8, !tbaa !7
  %8 = load ptr, ptr %4, align 8, !tbaa !49
  %9 = load i64, ptr %8, align 8, !tbaa !7
  %10 = icmp ult i64 %7, %9
  br i1 %10, label %11, label %13

11:                                               ; preds = %2
  %12 = load ptr, ptr %5, align 8, !tbaa !49
  store ptr %12, ptr %3, align 8
  br label %15

13:                                               ; preds = %2
  %14 = load ptr, ptr %4, align 8, !tbaa !49
  store ptr %14, ptr %3, align 8
  br label %15

15:                                               ; preds = %13, %11
  %16 = load ptr, ptr %3, align 8
  ret ptr %16
}

; Function Attrs: mustprogress noinline uwtable
define void @_ZN6google8protobuf8internal11SerialArena18AddCleanupFallbackEPvPFvS3_E(ptr noundef nonnull align 8 dereferenceable(72) %0, ptr noundef %1, ptr noundef %2) #13 align 2 {
  %4 = alloca ptr, align 8
  %5 = alloca ptr, align 8
  %6 = alloca ptr, align 8
  %7 = alloca i64, align 8
  %8 = alloca i64, align 8
  %9 = alloca ptr, align 8
  store ptr %0, ptr %4, align 8, !tbaa !62
  store ptr %1, ptr %5, align 8, !tbaa !3
  store ptr %2, ptr %6, align 8, !tbaa !3
  %10 = load ptr, ptr %4, align 8
  call void @llvm.lifetime.start.p0(i64 8, ptr %7) #3
  %11 = getelementptr inbounds nuw %"class.google::protobuf::internal::SerialArena", ptr %10, i32 0, i32 3
  %12 = load ptr, ptr %11, align 8, !tbaa !78
  %13 = icmp ne ptr %12, null
  br i1 %13, label %14, label %20

14:                                               ; preds = %3
  %15 = getelementptr inbounds nuw %"class.google::protobuf::internal::SerialArena", ptr %10, i32 0, i32 3
  %16 = load ptr, ptr %15, align 8, !tbaa !78
  %17 = getelementptr inbounds nuw %"struct.google::protobuf::internal::SerialArena::CleanupChunk", ptr %16, i32 0, i32 0
  %18 = load i64, ptr %17, align 8, !tbaa !105
  %19 = mul i64 %18, 2
  br label %21

20:                                               ; preds = %3
  br label %21

21:                                               ; preds = %20, %14
  %22 = phi i64 [ %19, %14 ], [ 8, %20 ]
  store i64 %22, ptr %7, align 8, !tbaa !7
  %23 = call noundef nonnull align 8 dereferenceable(8) ptr @_ZSt3minImERKT_S2_S2_(ptr noundef nonnull align 8 dereferenceable(8) %7, ptr noundef nonnull align 8 dereferenceable(8) @_ZL23kMaxCleanupListElements)
  %24 = load i64, ptr %23, align 8, !tbaa !7
  store i64 %24, ptr %7, align 8, !tbaa !7
  call void @llvm.lifetime.start.p0(i64 8, ptr %8) #3
  %25 = load i64, ptr %7, align 8, !tbaa !7
  %26 = call noundef i64 @_ZN6google8protobuf8internal11SerialArena12CleanupChunk6SizeOfEm(i64 noundef %25)
  %27 = call noundef i64 @_ZN6google8protobuf8internal10AlignUpTo8Em(i64 noundef %26)
  store i64 %27, ptr %8, align 8, !tbaa !7
  call void @llvm.lifetime.start.p0(i64 8, ptr %9) #3
  %28 = load i64, ptr %8, align 8, !tbaa !7
  %29 = call noundef ptr @_ZN6google8protobuf8internal11SerialArena15AllocateAlignedEm(ptr noundef nonnull align 8 dereferenceable(72) %10, i64 noundef %28)
  store ptr %29, ptr %9, align 8, !tbaa !107
  %30 = getelementptr inbounds nuw %"class.google::protobuf::internal::SerialArena", ptr %10, i32 0, i32 3
  %31 = load ptr, ptr %30, align 8, !tbaa !78
  %32 = load ptr, ptr %9, align 8, !tbaa !107
  %33 = getelementptr inbounds nuw %"struct.google::protobuf::internal::SerialArena::CleanupChunk", ptr %32, i32 0, i32 1
  store ptr %31, ptr %33, align 8, !tbaa !108
  %34 = load i64, ptr %7, align 8, !tbaa !7
  %35 = load ptr, ptr %9, align 8, !tbaa !107
  %36 = getelementptr inbounds nuw %"struct.google::protobuf::internal::SerialArena::CleanupChunk", ptr %35, i32 0, i32 0
  store i64 %34, ptr %36, align 8, !tbaa !105
  %37 = load ptr, ptr %9, align 8, !tbaa !107
  %38 = getelementptr inbounds nuw %"class.google::protobuf::internal::SerialArena", ptr %10, i32 0, i32 3
  store ptr %37, ptr %38, align 8, !tbaa !78
  %39 = load ptr, ptr %9, align 8, !tbaa !107
  %40 = getelementptr inbounds nuw %"struct.google::protobuf::internal::SerialArena::CleanupChunk", ptr %39, i32 0, i32 2
  %41 = getelementptr inbounds [1 x %"struct.google::protobuf::internal::SerialArena::CleanupNode"], ptr %40, i64 0, i64 0
  %42 = getelementptr inbounds nuw %"class.google::protobuf::internal::SerialArena", ptr %10, i32 0, i32 7
  store ptr %41, ptr %42, align 8, !tbaa !79
  %43 = load ptr, ptr %9, align 8, !tbaa !107
  %44 = getelementptr inbounds nuw %"struct.google::protobuf::internal::SerialArena::CleanupChunk", ptr %43, i32 0, i32 2
  %45 = load i64, ptr %7, align 8, !tbaa !7
  %46 = getelementptr inbounds nuw [1 x %"struct.google::protobuf::internal::SerialArena::CleanupNode"], ptr %44, i64 0, i64 %45
  %47 = getelementptr inbounds nuw %"class.google::protobuf::internal::SerialArena", ptr %10, i32 0, i32 8
  store ptr %46, ptr %47, align 8, !tbaa !80
  %48 = load ptr, ptr %5, align 8, !tbaa !3
  %49 = load ptr, ptr %6, align 8, !tbaa !3
  call void @_ZN6google8protobuf8internal11SerialArena10AddCleanupEPvPFvS3_E(ptr noundef nonnull align 8 dereferenceable(72) %10, ptr noundef %48, ptr noundef %49)
  call void @llvm.lifetime.end.p0(i64 8, ptr %9) #3
  call void @llvm.lifetime.end.p0(i64 8, ptr %8) #3
  call void @llvm.lifetime.end.p0(i64 8, ptr %7) #3
  ret void
}