; Function Attrs: mustprogress noinline uwtable
define void @_ZN6google8protobuf8internal11SerialArena18AddCleanupFallbackEPvPFvS3_E(ptr noundef nonnull align 8 captures(none) dereferenceable(72) %0, ptr noundef %1, ptr noundef %2) local_unnamed_addr #14 align 2 personality ptr @__gxx_personality_v0 {
  %4 = getelementptr inbounds nuw i8, ptr %0, i64 24
  %5 = getelementptr inbounds nuw i8, ptr %0, i64 48
  %6 = getelementptr inbounds nuw i8, ptr %0, i64 40
  %7 = getelementptr inbounds nuw i8, ptr %0, i64 56
  %8 = getelementptr inbounds nuw i8, ptr %0, i64 64
  %.pre = load ptr, ptr %4, align 8, !tbaa !53
  br label %tailrecurse

tailrecurse:                                      ; preds = %_ZN6google8protobuf8internal11SerialArena15AllocateAlignedEm.exit, %3
  %9 = phi ptr [ %.0.i, %_ZN6google8protobuf8internal11SerialArena15AllocateAlignedEm.exit ], [ %.pre, %3 ]
  %.not = icmp eq ptr %9, null
  br i1 %.not, label %.thread, label %10

10:                                               ; preds = %tailrecurse
  %11 = load i64, ptr %9, align 8, !tbaa !62
  %.fr14 = freeze i64 %11
  %12 = shl i64 %.fr14, 1
  %spec.select = tail call i64 @llvm.umin.i64(i64 %12, i64 64)
  br label %.thread

.thread:                                          ; preds = %10, %tailrecurse
  %13 = phi i64 [ 8, %tailrecurse ], [ %spec.select, %10 ]
  %14 = shl nuw nsw i64 %13, 4
  %15 = add nuw nsw i64 %14, 23
  %16 = and i64 %15, 4080
  %17 = load ptr, ptr %5, align 8, !tbaa !50
  %18 = load ptr, ptr %6, align 8, !tbaa !49
  %19 = ptrtoint ptr %17 to i64
  %20 = ptrtoint ptr %18 to i64
  %21 = sub i64 %19, %20
  %.not.i = icmp ugt i64 %16, %21
  br i1 %.not.i, label %22, label %24, !prof !39

22:                                               ; preds = %.thread
  %23 = tail call noundef ptr @_ZN6google8protobuf8internal11SerialArena23AllocateAlignedFallbackEm(ptr noundef nonnull align 8 dereferenceable(72) %0, i64 noundef %16)
  %.pre19 = load ptr, ptr %4, align 8, !tbaa !53
  br label %_ZN6google8protobuf8internal11SerialArena15AllocateAlignedEm.exit

24:                                               ; preds = %.thread
  %25 = getelementptr inbounds nuw i8, ptr %18, i64 %16
  store ptr %25, ptr %6, align 8, !tbaa !49
  br label %_ZN6google8protobuf8internal11SerialArena15AllocateAlignedEm.exit

_ZN6google8protobuf8internal11SerialArena15AllocateAlignedEm.exit: ; preds = %22, %24
  %26 = phi ptr [ %.pre19, %22 ], [ %9, %24 ]
  %.0.i = phi ptr [ %23, %22 ], [ %18, %24 ]
  %27 = getelementptr inbounds nuw i8, ptr %.0.i, i64 8
  store ptr %26, ptr %27, align 8, !tbaa !55
  store i64 %13, ptr %.0.i, align 8, !tbaa !62
  store ptr %.0.i, ptr %4, align 8, !tbaa !53
  %.ptr = getelementptr inbounds nuw i8, ptr %.0.i, i64 16
  store ptr %.ptr, ptr %7, align 8, !tbaa !54
  %28 = getelementptr inbounds nuw i8, ptr %.0.i, i64 %14
  %.ptr15 = getelementptr inbounds nuw i8, ptr %28, i64 16
  store ptr %.ptr15, ptr %8, align 8, !tbaa !69
  %29 = icmp eq i64 %13, 0
  br i1 %29, label %tailrecurse, label %_ZN6google8protobuf8internal11SerialArena10AddCleanupEPvPFvS3_E.exit, !prof !39

_ZN6google8protobuf8internal11SerialArena10AddCleanupEPvPFvS3_E.exit: ; preds = %_ZN6google8protobuf8internal11SerialArena15AllocateAlignedEm.exit
  %.ptr.le = getelementptr inbounds nuw i8, ptr %.0.i, i64 16
  store ptr %1, ptr %.ptr.le, align 8, !tbaa !59
  %30 = getelementptr inbounds nuw i8, ptr %.0.i, i64 24
  store ptr %2, ptr %30, align 8, !tbaa !57
  %31 = getelementptr inbounds nuw i8, ptr %.0.i, i64 32
  store ptr %31, ptr %7, align 8, !tbaa !54
  ret void
}